target datalayout = "e-m:e-p270:32:32-p271:32:32-p272:64:64-i64:64-i128:128-f80:128-n8:16:32:64-S128"
target triple = "x86_64-unknown-linux-gnu"

%struct.timespec = type { i64, i64 }

; Function Attrs: nounwind sspstrong uwtable
define dso_local i32 @qemu_poll_ns(ptr noundef %fds, i32 noundef %nfds, i64 noundef %timeout) #0 {
entry:
  %retval = alloca i32, align 4
  %fds.addr = alloca ptr, align 8
  %nfds.addr = alloca i32, align 4
  %timeout.addr = alloca i64, align 8
  %ts = alloca %struct.timespec, align 8
  %tvsec = alloca i64, align 8
  store ptr %fds, ptr %fds.addr, align 8
  store i32 %nfds, ptr %nfds.addr, align 4
  store i64 %timeout, ptr %timeout.addr, align 8
  %0 = load i64, ptr %timeout.addr, align 8
  %cmp = icmp slt i64 %0, 0
  br i1 %cmp, label %if.then, label %if.else

if.then:                                          ; preds = %entry
  %1 = load ptr, ptr %fds.addr, align 8
  %2 = load i32, ptr %nfds.addr, align 4
  %conv = zext i32 %2 to i64
  %call = call i32 @ppoll(ptr noundef %1, i64 noundef %conv, ptr noundef null, ptr noundef null)
  store i32 %call, ptr %retval, align 4
  br label %return

if.else:                                          ; preds = %entry
  %3 = load i64, ptr %timeout.addr, align 8
  %div = sdiv i64 %3, 1000000000
  store i64 %div, ptr %tvsec, align 8
  %4 = load i64, ptr %tvsec, align 8
  %cmp1 = icmp sgt i64 %4, 2147483647
  br i1 %cmp1, label %if.then3, label %if.end

if.then3:                                         ; preds = %if.else
  store i64 2147483647, ptr %tvsec, align 8
  br label %if.end

if.end:                                           ; preds = %if.then3, %if.else
  %5 = load i64, ptr %tvsec, align 8
  %tv_sec = getelementptr inbounds %struct.timespec, ptr %ts, i32 0, i32 0
  store i64 %5, ptr %tv_sec, align 8
  %6 = load i64, ptr %timeout.addr, align 8
  %rem = srem i64 %6, 1000000000
  %tv_nsec = getelementptr inbounds %struct.timespec, ptr %ts, i32 0, i32 1
  store i64 %rem, ptr %tv_nsec, align 8
  %7 = load ptr, ptr %fds.addr, align 8
  %8 = load i32, ptr %nfds.addr, align 4
  %conv4 = zext i32 %8 to i64
  %call5 = call i32 @ppoll(ptr noundef %7, i64 noundef %conv4, ptr noundef %ts, ptr noundef null)
  store i32 %call5, ptr %retval, align 4
  br label %return

return:                                           ; preds = %if.end, %if.then
  %9 = load i32, ptr %retval, align 4
  ret i32 %9
}