; Function Attrs: nounwind sspstrong uwtable
define dso_local i32 @qemu_poll_ns(ptr noundef %fds, i32 noundef %nfds, i64 noundef %timeout) local_unnamed_addr #0 {
entry:
  %ts = alloca %struct.timespec, align 8
  %cmp = icmp slt i64 %timeout, 0
  br i1 %cmp, label %if.then, label %if.else

if.then:                                          ; preds = %entry
  %conv = zext i32 %nfds to i64
  %call = tail call i32 @ppoll(ptr noundef %fds, i64 noundef %conv, ptr noundef null, ptr noundef null) #17
  br label %return

if.else:                                          ; preds = %entry
  %div = udiv i64 %timeout, 1000000000
  %spec.store.select = tail call i64 @llvm.umin.i64(i64 %div, i64 2147483647)
  store i64 %spec.store.select, ptr %ts, align 8
  %rem = urem i64 %timeout, 1000000000
  %tv_nsec = getelementptr inbounds nuw i8, ptr %ts, i64 8
  store i64 %rem, ptr %tv_nsec, align 8
  %conv4 = zext i32 %nfds to i64
  %call5 = call i32 @ppoll(ptr noundef %fds, i64 noundef %conv4, ptr noundef nonnull %ts, ptr noundef null) #17
  br label %return

return:                                           ; preds = %if.else, %if.then
  %retval.0 = phi i32 [ %call, %if.then ], [ %call5, %if.else ]
  ret i32 %retval.0
}